Certificate:
    Data:
        Version: 3 (0x2)
        Serial Number:
            9a:69:18:e3:ca:6c:d6:51
        Signature Algorithm: sha1WithRSAEncryption
        Issuer: C=US, ST=Michigan, O=xf0x, OU=9, CN=00xf0x/emailAddress=durmon.albasir@gmail.com
        Validity
            Not Before: Feb 10 14:48:15 2015 GMT
            Not After : Feb  9 14:48:15 2018 GMT
        Subject: C=US, ST=Michigan, O=xf0x, OU=9, CN=00xf0x/emailAddress=durmon.albasir@gmail.com
        Subject Public Key Info:
            Public Key Algorithm: rsaEncryption
            RSA Public Key: (1024 bit)
                Modulus (1024 bit):
                    00:d4:ca:22:5a:bd:22:c9:d8:42:f6:ff:93:cd:4f:
                    a1:f1:43:7b:3e:d2:75:a5:24:b9:bc:cf:7e:db:03:
                    b7:00:11:35:16:8e:52:fe:4f:44:11:d8:a2:f5:11:
                    ec:9f:33:1c:dd:01:0c:c1:cf:fa:a3:a2:16:ba:44:
                    96:06:00:57:94:d7:d5:28:b1:63:95:28:df:43:af:
                    db:b6:53:4f:d6:49:6e:da:33:36:9a:81:1e:e8:3b:
                    c3:54:f2:63:91:e7:d6:03:0b:5e:ef:d0:a9:03:73:
                    c7:1e:c6:95:f9:84:40:88:98:78:64:b6:bd:b3:82:
                    ec:d1:3f:fa:f3:9a:a5:8a:ab
                Exponent: 65537 (0x10001)
        X509v3 extensions:
            X509v3 Subject Key Identifier: 
                41:46:C6:D3:28:C2:17:2C:D9:30:CD:99:7F:2F:E7:37:B7:49:87:08
            X509v3 Authority Key Identifier: 
                keyid:41:46:C6:D3:28:C2:17:2C:D9:30:CD:99:7F:2F:E7:37:B7:49:87:08
                DirName:/C=US/ST=Michigan/O=xf0x/OU=9/CN=00xf0x/emailAddress=durmon.albasir@gmail.com
                serial:9A:69:18:E3:CA:6C:D6:51

            X509v3 Basic Constraints: 
                CA:TRUE
    Signature Algorithm: sha1WithRSAEncryption
        19:2b:c2:f2:ae:b6:d8:dd:a9:6a:e6:5e:b3:2a:fe:39:2d:9e:
        5b:c2:9d:30:5f:4c:25:85:5a:25:c4:91:86:d6:f3:1a:1c:0c:
        37:2d:38:72:ee:be:97:f5:91:72:68:4d:87:f0:a5:fc:6d:f7:
        33:63:4e:b7:7e:d8:35:51:cc:4d:f6:8a:66:99:ac:e0:68:68:
        2e:e0:3d:44:bb:ce:d5:5e:08:5a:ee:2c:18:8b:d3:35:ee:55:
        2d:02:26:cc:7f:9a:0e:a7:0a:8e:79:75:26:61:37:1d:ba:2b:
        4b:47:03:3a:f3:2b:7e:c9:ee:c1:c0:f6:3d:2a:fc:2a:d1:90:
        ef:c0
-----BEGIN CERTIFICATE-----
MIIDQzCCAqygAwIBAgIJAJppGOPKbNZRMA0GCSqGSIb3DQEBBQUAMHUxCzAJBgNV
BAYTAlVTMREwDwYDVQQIEwhNaWNoaWdhbjENMAsGA1UEChMEeGYweDEKMAgGA1UE
CxMBOTEPMA0GA1UEAxMGMDB4ZjB4MScwJQYJKoZIhvcNAQkBFhhkdXJtb24uYWxi
YXNpckBnbWFpbC5jb20wHhcNMTUwMjEwMTQ0ODE1WhcNMTgwMjA5MTQ0ODE1WjB1
MQswCQYDVQQGEwJVUzERMA8GA1UECBMITWljaGlnYW4xDTALBgNVBAoTBHhmMHgx
CjAIBgNVBAsTATkxDzANBgNVBAMTBjAweGYweDEnMCUGCSqGSIb3DQEJARYYZHVy
bW9uLmFsYmFzaXJAZ21haWwuY29tMIGfMA0GCSqGSIb3DQEBAQUAA4GNADCBiQKB
gQDUyiJavSLJ2EL2/5PNT6HxQ3s+0nWlJLm8z37bA7cAETUWjlL+T0QR2KL1Eeyf
MxzdAQzBz/qjoha6RJYGAFeU19UosWOVKN9Dr9u2U0/WSW7aMzaagR7oO8NU8mOR
59YDC17v0KkDc8cexpX5hECImHhktr2zguzRP/rzmqWKqwIDAQABo4HaMIHXMB0G
A1UdDgQWBBRBRsbTKMIXLNkwzZl/L+c3t0mHCDCBpwYDVR0jBIGfMIGcgBRBRsbT
KMIXLNkwzZl/L+c3t0mHCKF5pHcwdTELMAkGA1UEBhMCVVMxETAPBgNVBAgTCE1p
Y2hpZ2FuMQ0wCwYDVQQKEwR4ZjB4MQowCAYDVQQLEwE5MQ8wDQYDVQQDEwYwMHhm
MHgxJzAlBgkqhkiG9w0BCQEWGGR1cm1vbi5hbGJhc2lyQGdtYWlsLmNvbYIJAJpp
GOPKbNZRMAwGA1UdEwQFMAMBAf8wDQYJKoZIhvcNAQEFBQADgYEAGSvC8q622N2p
auZesyr+OS2eW8KdMF9MJYVaJcSRhtbzGhwMNy04cu6+l/WRcmhNh/Cl/G33M2NO
t37YNVHMTfaKZpms4GhoLuA9RLvO1V4IWu4sGIvTNe5VLQImzH+aDqcKjnl1JmE3
HborS0cDOvMrfsnuwcD2PSr8KtGQ78A=
-----END CERTIFICATE-----
